target datalayout = "e-m:e-p270:32:32-p271:32:32-p272:64:64-i64:64-i128:128-f80:128-n8:16:32:64-S128"
target triple = "x86_64-pc-linux-gnu"

%"class.icu_77::MaybeStackArray" = type <{ ptr, i32, i8, [40 x i8], [3 x i8] }>
%struct.CollatorSpec = type { [6 x %"class.icu_77::CharString"], %"class.icu_77::CharString", [8 x i32], i32, [32 x i16], i32, i8, [7 x i8], [17 x %"class.icu_77::CharString"] }
%"class.icu_77::CharString" = type { %"class.icu_77::MaybeStackArray", i32, [4 x i8] }

; Function Attrs: mustprogress nounwind uwtable
define internal noundef zeroext i16 @_ZL15readHexCodeUnitPPKcP10UErrorCode(ptr noundef %0, ptr noundef %1) #0 {
  %3 = alloca i16, align 2
  %4 = alloca ptr, align 8
  %5 = alloca ptr, align 8
  %6 = alloca i16, align 2
  %7 = alloca i32, align 4
  %8 = alloca i8, align 1
  %9 = alloca i32, align 4
  %10 = alloca i32, align 4
  store ptr %0, ptr %4, align 8, !tbaa !80
  store ptr %1, ptr %5, align 8, !tbaa !22
  call void @llvm.lifetime.start.p0(i64 2, ptr %6) #12
  store i16 0, ptr %6, align 2, !tbaa !29
  call void @llvm.lifetime.start.p0(i64 4, ptr %7) #12
  store i32 0, ptr %7, align 4, !tbaa !14
  call void @llvm.lifetime.start.p0(i64 1, ptr %8) #12
  call void @llvm.lifetime.start.p0(i64 4, ptr %9) #12
  store i32 0, ptr %9, align 4, !tbaa !14
  br label %11

11:                                               ; preds = %64, %2
  %12 = load ptr, ptr %4, align 8, !tbaa !80
  %13 = load ptr, ptr %12, align 8, !tbaa !17
  %14 = load i8, ptr %13, align 1, !tbaa !23
  store i8 %14, ptr %8, align 1, !tbaa !23
  %15 = sext i8 %14 to i32
  %16 = icmp ne i32 %15, 0
  br i1 %16, label %17, label %20

17:                                               ; preds = %11
  %18 = load i32, ptr %9, align 4, !tbaa !14
  %19 = icmp slt i32 %18, 4
  br label %20

20:                                               ; preds = %17, %11
  %21 = phi i1 [ false, %11 ], [ %19, %17 ]
  br i1 %21, label %22, label %78

22:                                               ; preds = %20
  %23 = load i8, ptr %8, align 1, !tbaa !23
  %24 = sext i8 %23 to i32
  %25 = icmp sge i32 %24, 48
  br i1 %25, label %26, label %34

26:                                               ; preds = %22
  %27 = load i8, ptr %8, align 1, !tbaa !23
  %28 = sext i8 %27 to i32
  %29 = icmp sle i32 %28, 57
  br i1 %29, label %30, label %34

30:                                               ; preds = %26
  %31 = load i8, ptr %8, align 1, !tbaa !23
  %32 = sext i8 %31 to i32
  %33 = sub nsw i32 %32, 48
  store i32 %33, ptr %7, align 4, !tbaa !14
  br label %64

34:                                               ; preds = %26, %22
  %35 = load i8, ptr %8, align 1, !tbaa !23
  %36 = sext i8 %35 to i32
  %37 = icmp sge i32 %36, 97
  br i1 %37, label %38, label %47

38:                                               ; preds = %34
  %39 = load i8, ptr %8, align 1, !tbaa !23
  %40 = sext i8 %39 to i32
  %41 = icmp sle i32 %40, 102
  br i1 %41, label %42, label %47

42:                                               ; preds = %38
  %43 = load i8, ptr %8, align 1, !tbaa !23
  %44 = sext i8 %43 to i32
  %45 = sub nsw i32 %44, 97
  %46 = add nsw i32 %45, 10
  store i32 %46, ptr %7, align 4, !tbaa !14
  br label %63

47:                                               ; preds = %38, %34
  %48 = load i8, ptr %8, align 1, !tbaa !23
  %49 = sext i8 %48 to i32
  %50 = icmp sge i32 %49, 65
  br i1 %50, label %51, label %60

51:                                               ; preds = %47
  %52 = load i8, ptr %8, align 1, !tbaa !23
  %53 = sext i8 %52 to i32
  %54 = icmp sle i32 %53, 70
  br i1 %54, label %55, label %60

55:                                               ; preds = %51
  %56 = load i8, ptr %8, align 1, !tbaa !23
  %57 = sext i8 %56 to i32
  %58 = sub nsw i32 %57, 65
  %59 = add nsw i32 %58, 10
  store i32 %59, ptr %7, align 4, !tbaa !14
  br label %62

60:                                               ; preds = %51, %47
  %61 = load ptr, ptr %5, align 8, !tbaa !22
  store i32 1, ptr %61, align 4, !tbaa !15
  store i16 0, ptr %3, align 2
  store i32 1, ptr %10, align 4
  br label %85

62:                                               ; preds = %55
  br label %63

63:                                               ; preds = %62, %42
  br label %64

64:                                               ; preds = %63, %30
  %65 = load i16, ptr %6, align 2, !tbaa !29
  %66 = zext i16 %65 to i32
  %67 = shl i32 %66, 4
  %68 = load i32, ptr %7, align 4, !tbaa !14
  %69 = trunc i32 %68 to i16
  %70 = zext i16 %69 to i32
  %71 = or i32 %67, %70
  %72 = trunc i32 %71 to i16
  store i16 %72, ptr %6, align 2, !tbaa !29
  %73 = load i32, ptr %9, align 4, !tbaa !14
  %74 = add nsw i32 %73, 1
  store i32 %74, ptr %9, align 4, !tbaa !14
  %75 = load ptr, ptr %4, align 8, !tbaa !80
  %76 = load ptr, ptr %75, align 8, !tbaa !17
  %77 = getelementptr inbounds nuw i8, ptr %76, i32 1
  store ptr %77, ptr %75, align 8, !tbaa !17
  br label %11, !llvm.loop !83

78:                                               ; preds = %20
  %79 = load i32, ptr %9, align 4, !tbaa !14
  %80 = icmp slt i32 %79, 4
  br i1 %80, label %81, label %83

81:                                               ; preds = %78
  %82 = load ptr, ptr %5, align 8, !tbaa !22
  store i32 1, ptr %82, align 4, !tbaa !15
  br label %83

83:                                               ; preds = %81, %78
  %84 = load i16, ptr %6, align 2, !tbaa !29
  store i16 %84, ptr %3, align 2
  store i32 1, ptr %10, align 4
  br label %85

85:                                               ; preds = %83, %60
  call void @llvm.lifetime.end.p0(i64 4, ptr %9) #12
  call void @llvm.lifetime.end.p0(i64 1, ptr %8) #12
  call void @llvm.lifetime.end.p0(i64 4, ptr %7) #12
  call void @llvm.lifetime.end.p0(i64 2, ptr %6) #12
  %86 = load i16, ptr %3, align 2
  ret i16 %86
}

; Function Attrs: inlinehint mustprogress nounwind uwtable
define internal noundef signext i8 @_ZL9U_SUCCESS10UErrorCode(i32 noundef %0) #2 {
  %2 = alloca i32, align 4
  store i32 %0, ptr %2, align 4, !tbaa !15
  %3 = load i32, ptr %2, align 4, !tbaa !15
  %4 = icmp sle i32 %3, 0
  %5 = zext i1 %4 to i8
  ret i8 %5
}

; Function Attrs: mustprogress uwtable
define internal noundef ptr @_ZL19_processVariableTopP12CollatorSpecjPKcP10UErrorCode(ptr noundef %0, i32 noundef %1, ptr noundef %2, ptr noundef %3) #1 {
  %5 = alloca ptr, align 8
  %6 = alloca i32, align 4
  %7 = alloca ptr, align 8
  %8 = alloca ptr, align 8
  %9 = alloca i32, align 4
  store ptr %0, ptr %5, align 8, !tbaa !35
  store i32 %1, ptr %6, align 4, !tbaa !14
  store ptr %2, ptr %7, align 8, !tbaa !17
  store ptr %3, ptr %8, align 8, !tbaa !22
  call void @llvm.lifetime.start.p0(i64 4, ptr %9) #12
  store i32 0, ptr %9, align 4, !tbaa !14
  %10 = load i32, ptr %6, align 4, !tbaa !14
  %11 = icmp ne i32 %10, 0
  br i1 %11, label %61, label %12

12:                                               ; preds = %4
  br label %13

13:                                               ; preds = %33, %12
  %14 = load ptr, ptr %8, align 8, !tbaa !22
  %15 = load i32, ptr %14, align 4, !tbaa !15
  %16 = call noundef signext i8 @_ZL9U_SUCCESS10UErrorCode(i32 noundef %15)
  %17 = icmp ne i8 %16, 0
  br i1 %17, label %18, label %31

18:                                               ; preds = %13
  %19 = load i32, ptr %9, align 4, !tbaa !14
  %20 = icmp slt i32 %19, 32
  br i1 %20, label %21, label %31

21:                                               ; preds = %18
  %22 = load ptr, ptr %7, align 8, !tbaa !17
  %23 = load i8, ptr %22, align 1, !tbaa !23
  %24 = sext i8 %23 to i32
  %25 = icmp ne i32 %24, 0
  br i1 %25, label %26, label %31

26:                                               ; preds = %21
  %27 = load ptr, ptr %7, align 8, !tbaa !17
  %28 = load i8, ptr %27, align 1, !tbaa !23
  %29 = sext i8 %28 to i32
  %30 = icmp ne i32 %29, 95
  br label %31

31:                                               ; preds = %26, %21, %18, %13
  %32 = phi i1 [ false, %21 ], [ false, %18 ], [ false, %13 ], [ %30, %26 ]
  br i1 %32, label %33, label %42

33:                                               ; preds = %31
  %34 = load ptr, ptr %8, align 8, !tbaa !22
  %35 = call noundef zeroext i16 @_ZL15readHexCodeUnitPPKcP10UErrorCode(ptr noundef %7, ptr noundef %34)
  %36 = load ptr, ptr %5, align 8, !tbaa !35
  %37 = getelementptr inbounds nuw %struct.CollatorSpec, ptr %36, i32 0, i32 4
  %38 = load i32, ptr %9, align 4, !tbaa !14
  %39 = add nsw i32 %38, 1
  store i32 %39, ptr %9, align 4, !tbaa !14
  %40 = sext i32 %38 to i64
  %41 = getelementptr inbounds [32 x i16], ptr %37, i64 0, i64 %40
  store i16 %35, ptr %41, align 2, !tbaa !29
  br label %13, !llvm.loop !74

42:                                               ; preds = %31
  %43 = load i32, ptr %9, align 4, !tbaa !14
  %44 = load ptr, ptr %5, align 8, !tbaa !35
  %45 = getelementptr inbounds nuw %struct.CollatorSpec, ptr %44, i32 0, i32 5
  store i32 %43, ptr %45, align 4, !tbaa !60
  %46 = load i32, ptr %9, align 4, !tbaa !14
  %47 = icmp eq i32 %46, 32
  br i1 %47, label %48, label %60

48:                                               ; preds = %42
  %49 = load ptr, ptr %7, align 8, !tbaa !17
  %50 = load i8, ptr %49, align 1, !tbaa !23
  %51 = sext i8 %50 to i32
  %52 = icmp ne i32 %51, 0
  br i1 %52, label %53, label %60

53:                                               ; preds = %48
  %54 = load ptr, ptr %7, align 8, !tbaa !17
  %55 = load i8, ptr %54, align 1, !tbaa !23
  %56 = sext i8 %55 to i32
  %57 = icmp ne i32 %56, 95
  br i1 %57, label %58, label %60

58:                                               ; preds = %53
  %59 = load ptr, ptr %8, align 8, !tbaa !22
  store i32 15, ptr %59, align 4, !tbaa !15
  br label %60

60:                                               ; preds = %58, %53, %48, %42
  br label %67

61:                                               ; preds = %4
  %62 = load ptr, ptr %8, align 8, !tbaa !22
  %63 = call noundef zeroext i16 @_ZL15readHexCodeUnitPPKcP10UErrorCode(ptr noundef %7, ptr noundef %62)
  %64 = zext i16 %63 to i32
  %65 = load ptr, ptr %5, align 8, !tbaa !35
  %66 = getelementptr inbounds nuw %struct.CollatorSpec, ptr %65, i32 0, i32 3
  store i32 %64, ptr %66, align 8, !tbaa !37
  br label %67

67:                                               ; preds = %61, %60
  %68 = load ptr, ptr %8, align 8, !tbaa !22
  %69 = load i32, ptr %68, align 4, !tbaa !15
  %70 = call noundef signext i8 @_ZL9U_SUCCESS10UErrorCode(i32 noundef %69)
  %71 = icmp ne i8 %70, 0
  br i1 %71, label %72, label %75

72:                                               ; preds = %67
  %73 = load ptr, ptr %5, align 8, !tbaa !35
  %74 = getelementptr inbounds nuw %struct.CollatorSpec, ptr %73, i32 0, i32 6
  store i8 1, ptr %74, align 8, !tbaa !40
  br label %75

75:                                               ; preds = %72, %67
  %76 = load ptr, ptr %7, align 8, !tbaa !17
  call void @llvm.lifetime.end.p0(i64 4, ptr %9) #12
  ret ptr %76
}