; Function Attrs: mustprogress nofree norecurse nosync nounwind memory(argmem: readwrite) uwtable
define internal noundef ptr @_ZL19_processVariableTopP12CollatorSpecjPKcP10UErrorCode(ptr noundef writeonly captures(none) %0, i32 noundef %1, ptr noundef readonly %2, ptr noundef captures(none) %3) #11 {
  %.not = icmp eq i32 %1, 0
  br i1 %.not, label %.preheader, label %39

.preheader:                                       ; preds = %4
  %.promoted = load i32, ptr %3, align 4, !tbaa !13
  %5 = icmp slt i32 %.promoted, 1
  br i1 %5, label %.lr.ph, label %.critedge.thread68

.critedge.thread68:                               ; preds = %.preheader
  %6 = getelementptr inbounds nuw i8, ptr %0, i64 548
  store i32 0, ptr %6, align 4, !tbaa !36
  br label %.thread

.lr.ph:                                           ; preds = %.preheader
  %7 = getelementptr inbounds nuw i8, ptr %0, i64 484
  br label %8

8:                                                ; preds = %.lr.ph, %_ZL15readHexCodeUnitPPKcP10UErrorCode.exit
  %indvars.iv = phi i64 [ 0, %.lr.ph ], [ %indvars.iv.next, %_ZL15readHexCodeUnitPPKcP10UErrorCode.exit ]
  %.03747 = phi ptr [ %2, %.lr.ph ], [ %22, %_ZL15readHexCodeUnitPPKcP10UErrorCode.exit ]
  %9 = load i8, ptr %.03747, align 1, !tbaa !22
  switch i8 %9, label %.lr.ph.i [
    i8 0, label %.thread73
    i8 95, label %.thread73
  ]

.lr.ph.i:                                         ; preds = %8, %17
  %.2 = phi ptr [ %22, %17 ], [ %.03747, %8 ]
  %10 = phi i8 [ %23, %17 ], [ %9, %8 ]
  %.034.i = phi i32 [ %21, %17 ], [ 0, %8 ]
  %.02933.i = phi i16 [ %20, %17 ], [ 0, %8 ]
  %11 = sext i8 %10 to i16
  %12 = add i8 %10, -48
  %or.cond.i = icmp ult i8 %12, 10
  br i1 %or.cond.i, label %17, label %13

13:                                               ; preds = %.lr.ph.i
  %14 = add i8 %10, -97
  %or.cond5.i = icmp ult i8 %14, 6
  br i1 %or.cond5.i, label %17, label %15

15:                                               ; preds = %13
  %16 = add i8 %10, -65
  %or.cond8.i = icmp ult i8 %16, 6
  br i1 %or.cond8.i, label %17, label %_ZL15readHexCodeUnitPPKcP10UErrorCode.exit.thread

17:                                               ; preds = %15, %13, %.lr.ph.i
  %.sink.i = phi i16 [ -48, %.lr.ph.i ], [ -87, %13 ], [ -55, %15 ]
  %18 = add nsw i16 %.sink.i, %11
  %19 = shl i16 %.02933.i, 4
  %20 = or i16 %18, %19
  %21 = add nuw nsw i32 %.034.i, 1
  %22 = getelementptr inbounds nuw i8, ptr %.2, i64 1
  %23 = load i8, ptr %22, align 1, !tbaa !22
  %24 = icmp ne i8 %23, 0
  %25 = icmp samesign ult i32 %.034.i, 3
  %26 = select i1 %24, i1 %25, i1 false
  br i1 %26, label %.lr.ph.i, label %._crit_edge.i, !llvm.loop !46

._crit_edge.i:                                    ; preds = %17
  br i1 %25, label %_ZL15readHexCodeUnitPPKcP10UErrorCode.exit.thread, label %_ZL15readHexCodeUnitPPKcP10UErrorCode.exit

_ZL15readHexCodeUnitPPKcP10UErrorCode.exit.thread: ; preds = %._crit_edge.i, %15
  %.3 = phi ptr [ %.2, %15 ], [ %22, %._crit_edge.i ]
  %.027.ph.i = phi i16 [ 0, %15 ], [ %20, %._crit_edge.i ]
  store i32 1, ptr %3, align 4, !tbaa !13
  %indvars.iv.next64 = add nuw nsw i64 %indvars.iv, 1
  %27 = getelementptr inbounds nuw [32 x i16], ptr %7, i64 0, i64 %indvars.iv
  store i16 %.027.ph.i, ptr %27, align 2, !tbaa !18
  br label %.critedge

_ZL15readHexCodeUnitPPKcP10UErrorCode.exit:       ; preds = %._crit_edge.i
  %indvars.iv.next = add nuw nsw i64 %indvars.iv, 1
  %28 = getelementptr inbounds nuw [32 x i16], ptr %7, i64 0, i64 %indvars.iv
  store i16 %20, ptr %28, align 2, !tbaa !18
  %29 = icmp samesign ult i64 %indvars.iv, 31
  br i1 %29, label %8, label %.critedge, !llvm.loop !47

.thread73:                                        ; preds = %8, %8
  %30 = trunc nuw nsw i64 %indvars.iv to i32
  %31 = getelementptr inbounds nuw i8, ptr %0, i64 548
  store i32 %30, ptr %31, align 4, !tbaa !36
  br label %63

.critedge:                                        ; preds = %_ZL15readHexCodeUnitPPKcP10UErrorCode.exit, %_ZL15readHexCodeUnitPPKcP10UErrorCode.exit.thread
  %indvars.iv.next67 = phi i64 [ %indvars.iv.next64, %_ZL15readHexCodeUnitPPKcP10UErrorCode.exit.thread ], [ %indvars.iv.next, %_ZL15readHexCodeUnitPPKcP10UErrorCode.exit ]
  %.466 = phi ptr [ %.3, %_ZL15readHexCodeUnitPPKcP10UErrorCode.exit.thread ], [ %22, %_ZL15readHexCodeUnitPPKcP10UErrorCode.exit ]
  %32 = phi i32 [ 1, %_ZL15readHexCodeUnitPPKcP10UErrorCode.exit.thread ], [ %.promoted, %_ZL15readHexCodeUnitPPKcP10UErrorCode.exit ]
  %33 = trunc nuw nsw i64 %indvars.iv.next67 to i32
  %34 = getelementptr inbounds nuw i8, ptr %0, i64 548
  store i32 %33, ptr %34, align 4, !tbaa !36
  %35 = icmp eq i64 %indvars.iv.next67, 32
  br i1 %35, label %36, label %60

36:                                               ; preds = %.critedge
  %37 = load i8, ptr %.466, align 1, !tbaa !22
  switch i8 %37, label %38 [
    i8 0, label %60
    i8 95, label %60
  ]

38:                                               ; preds = %36
  store i32 15, ptr %3, align 4, !tbaa !13
  br label %.thread

39:                                               ; preds = %4
  %40 = load i8, ptr %2, align 1, !tbaa !22
  %.not.i22 = icmp eq i8 %40, 0
  br i1 %.not.i22, label %.sink.split.i29, label %.lr.ph.i23

.lr.ph.i23:                                       ; preds = %39, %48
  %.5 = phi ptr [ %53, %48 ], [ %2, %39 ]
  %41 = phi i8 [ %54, %48 ], [ %40, %39 ]
  %.034.i24 = phi i32 [ %52, %48 ], [ 0, %39 ]
  %.02933.i25 = phi i16 [ %51, %48 ], [ 0, %39 ]
  %42 = sext i8 %41 to i16
  %43 = add i8 %41, -48
  %or.cond.i26 = icmp ult i8 %43, 10
  br i1 %or.cond.i26, label %48, label %44

44:                                               ; preds = %.lr.ph.i23
  %45 = add i8 %41, -97
  %or.cond5.i27 = icmp ult i8 %45, 6
  br i1 %or.cond5.i27, label %48, label %46

46:                                               ; preds = %44
  %47 = add i8 %41, -65
  %or.cond8.i28 = icmp ult i8 %47, 6
  br i1 %or.cond8.i28, label %48, label %.sink.split.i29

48:                                               ; preds = %46, %44, %.lr.ph.i23
  %.sink.i32 = phi i16 [ -48, %.lr.ph.i23 ], [ -87, %44 ], [ -55, %46 ]
  %49 = add nsw i16 %.sink.i32, %42
  %50 = shl i16 %.02933.i25, 4
  %51 = or i16 %49, %50
  %52 = add nuw nsw i32 %.034.i24, 1
  %53 = getelementptr inbounds nuw i8, ptr %.5, i64 1
  %54 = load i8, ptr %53, align 1, !tbaa !22
  %55 = icmp ne i8 %54, 0
  %56 = icmp samesign ult i32 %.034.i24, 3
  %57 = select i1 %55, i1 %56, i1 false
  br i1 %57, label %.lr.ph.i23, label %._crit_edge.i33, !llvm.loop !46

._crit_edge.i33:                                  ; preds = %48
  br i1 %56, label %.sink.split.i29, label %._crit_edge.i33._ZL15readHexCodeUnitPPKcP10UErrorCode.exit34_crit_edge

._crit_edge.i33._ZL15readHexCodeUnitPPKcP10UErrorCode.exit34_crit_edge: ; preds = %._crit_edge.i33
  %.pre.pre = load i32, ptr %3, align 4, !tbaa !13
  br label %_ZL15readHexCodeUnitPPKcP10UErrorCode.exit34

.sink.split.i29:                                  ; preds = %46, %._crit_edge.i33, %39
  %.6 = phi ptr [ %2, %39 ], [ %53, %._crit_edge.i33 ], [ %.5, %46 ]
  %.027.ph.i30 = phi i16 [ 0, %39 ], [ %51, %._crit_edge.i33 ], [ 0, %46 ]
  store i32 1, ptr %3, align 4, !tbaa !13
  br label %_ZL15readHexCodeUnitPPKcP10UErrorCode.exit34

_ZL15readHexCodeUnitPPKcP10UErrorCode.exit34:     ; preds = %._crit_edge.i33._ZL15readHexCodeUnitPPKcP10UErrorCode.exit34_crit_edge, %.sink.split.i29
  %.pre = phi i32 [ 1, %.sink.split.i29 ], [ %.pre.pre, %._crit_edge.i33._ZL15readHexCodeUnitPPKcP10UErrorCode.exit34_crit_edge ]
  %.7 = phi ptr [ %.6, %.sink.split.i29 ], [ %53, %._crit_edge.i33._ZL15readHexCodeUnitPPKcP10UErrorCode.exit34_crit_edge ]
  %.027.i31 = phi i16 [ %.027.ph.i30, %.sink.split.i29 ], [ %51, %._crit_edge.i33._ZL15readHexCodeUnitPPKcP10UErrorCode.exit34_crit_edge ]
  %58 = zext i16 %.027.i31 to i32
  %59 = getelementptr inbounds nuw i8, ptr %0, i64 480
  store i32 %58, ptr %59, align 8, !tbaa !37
  br label %60

60:                                               ; preds = %36, %36, %.critedge, %_ZL15readHexCodeUnitPPKcP10UErrorCode.exit34
  %61 = phi i32 [ %32, %36 ], [ %32, %36 ], [ %32, %.critedge ], [ %.pre, %_ZL15readHexCodeUnitPPKcP10UErrorCode.exit34 ]
  %.1 = phi ptr [ %.466, %36 ], [ %.466, %36 ], [ %.466, %.critedge ], [ %.7, %_ZL15readHexCodeUnitPPKcP10UErrorCode.exit34 ]
  %62 = icmp sgt i32 %61, 0
  br i1 %62, label %.thread, label %63

63:                                               ; preds = %.thread73, %60
  %.175 = phi ptr [ %.03747, %.thread73 ], [ %.1, %60 ]
  %64 = getelementptr inbounds nuw i8, ptr %0, i64 552
  store i8 1, ptr %64, align 8, !tbaa !23
  br label %.thread

.thread:                                          ; preds = %.critedge.thread68, %38, %63, %60
  %.172 = phi ptr [ %.175, %63 ], [ %.1, %60 ], [ %2, %.critedge.thread68 ], [ %.466, %38 ]
  ret ptr %.172
}